target datalayout = "e-m:e-p270:32:32-p271:32:32-p272:64:64-i64:64-i128:128-f80:128-n8:16:32:64-S128"
target triple = "x86_64-pc-linux-gnu"

%struct.lua_State = type { ptr, i8, i8, i8, i8, i16, %union.StkIdRel, ptr, ptr, %union.StkIdRel, %union.StkIdRel, ptr, %union.StkIdRel, ptr, ptr, ptr, %struct.CallInfo, ptr, i64, i32, i32, i32, i32, i32, %struct.anon.3 }
%union.StkIdRel = type { ptr }
%struct.CallInfo = type { %union.StkIdRel, %union.StkIdRel, ptr, ptr, %union.anon, %union.anon.2, i32 }
%union.anon = type { %struct.anon.1 }
%struct.anon.1 = type { ptr, i64, i64 }
%union.anon.2 = type { i32 }
%struct.anon.3 = type { i32, i32 }

@.str.1 = private unnamed_addr constant [15 x i8] c"stack overflow\00", align 1

; Function Attrs: nounwind uwtable
define hidden i32 @luaD_growstack(ptr noundef %0, i32 noundef %1, i32 noundef %2) #0 {
  %4 = alloca i32, align 4
  %5 = alloca ptr, align 8
  %6 = alloca i32, align 4
  %7 = alloca i32, align 4
  %8 = alloca i32, align 4
  %9 = alloca i32, align 4
  %10 = alloca i32, align 4
  %11 = alloca i32, align 4
  store ptr %0, ptr %5, align 8, !tbaa !4
  store i32 %1, ptr %6, align 4, !tbaa !9
  store i32 %2, ptr %7, align 4, !tbaa !9
  call void @llvm.lifetime.start.p0(i64 4, ptr %8) #11
  %12 = load ptr, ptr %5, align 8, !tbaa !4
  %13 = getelementptr inbounds nuw %struct.lua_State, ptr %12, i32 0, i32 9
  %14 = load ptr, ptr %13, align 8, !tbaa !34
  %15 = load ptr, ptr %5, align 8, !tbaa !4
  %16 = getelementptr inbounds nuw %struct.lua_State, ptr %15, i32 0, i32 10
  %17 = load ptr, ptr %16, align 8, !tbaa !34
  %18 = ptrtoint ptr %14 to i64
  %19 = ptrtoint ptr %17 to i64
  %20 = sub i64 %18, %19
  %21 = sdiv exact i64 %20, 16
  %22 = trunc i64 %21 to i32
  store i32 %22, ptr %8, align 4, !tbaa !9
  %23 = load i32, ptr %8, align 4, !tbaa !9
  %24 = icmp sgt i32 %23, 1000000
  %25 = zext i1 %24 to i32
  %26 = icmp ne i32 %25, 0
  %27 = zext i1 %26 to i32
  %28 = sext i32 %27 to i64
  %29 = call i64 @llvm.expect.i64(i64 %28, i64 0)
  %30 = icmp ne i64 %29, 0
  br i1 %30, label %31, label %37

31:                                               ; preds = %3
  %32 = load i32, ptr %7, align 4, !tbaa !9
  %33 = icmp ne i32 %32, 0
  br i1 %33, label %34, label %36

34:                                               ; preds = %31
  %35 = load ptr, ptr %5, align 8, !tbaa !4
  call void @luaD_throw(ptr noundef %35, i32 noundef 5) #13
  unreachable

36:                                               ; preds = %31
  store i32 0, ptr %4, align 4
  store i32 1, ptr %9, align 4
  br label %93

37:                                               ; preds = %3
  %38 = load i32, ptr %6, align 4, !tbaa !9
  %39 = icmp slt i32 %38, 1000000
  br i1 %39, label %40, label %83

40:                                               ; preds = %37
  call void @llvm.lifetime.start.p0(i64 4, ptr %10) #11
  %41 = load i32, ptr %8, align 4, !tbaa !9
  %42 = mul nsw i32 2, %41
  store i32 %42, ptr %10, align 4, !tbaa !9
  call void @llvm.lifetime.start.p0(i64 4, ptr %11) #11
  %43 = load ptr, ptr %5, align 8, !tbaa !4
  %44 = getelementptr inbounds nuw %struct.lua_State, ptr %43, i32 0, i32 6
  %45 = load ptr, ptr %44, align 8, !tbaa !34
  %46 = load ptr, ptr %5, align 8, !tbaa !4
  %47 = getelementptr inbounds nuw %struct.lua_State, ptr %46, i32 0, i32 10
  %48 = load ptr, ptr %47, align 8, !tbaa !34
  %49 = ptrtoint ptr %45 to i64
  %50 = ptrtoint ptr %48 to i64
  %51 = sub i64 %49, %50
  %52 = sdiv exact i64 %51, 16
  %53 = trunc i64 %52 to i32
  %54 = load i32, ptr %6, align 4, !tbaa !9
  %55 = add nsw i32 %53, %54
  store i32 %55, ptr %11, align 4, !tbaa !9
  %56 = load i32, ptr %10, align 4, !tbaa !9
  %57 = icmp sgt i32 %56, 1000000
  br i1 %57, label %58, label %59

58:                                               ; preds = %40
  store i32 1000000, ptr %10, align 4, !tbaa !9
  br label %59

59:                                               ; preds = %58, %40
  %60 = load i32, ptr %10, align 4, !tbaa !9
  %61 = load i32, ptr %11, align 4, !tbaa !9
  %62 = icmp slt i32 %60, %61
  br i1 %62, label %63, label %65

63:                                               ; preds = %59
  %64 = load i32, ptr %11, align 4, !tbaa !9
  store i32 %64, ptr %10, align 4, !tbaa !9
  br label %65

65:                                               ; preds = %63, %59
  %66 = load i32, ptr %10, align 4, !tbaa !9
  %67 = icmp sle i32 %66, 1000000
  %68 = zext i1 %67 to i32
  %69 = icmp ne i32 %68, 0
  %70 = zext i1 %69 to i32
  %71 = sext i32 %70 to i64
  %72 = call i64 @llvm.expect.i64(i64 %71, i64 1)
  %73 = icmp ne i64 %72, 0
  br i1 %73, label %74, label %79

74:                                               ; preds = %65
  %75 = load ptr, ptr %5, align 8, !tbaa !4
  %76 = load i32, ptr %10, align 4, !tbaa !9
  %77 = load i32, ptr %7, align 4, !tbaa !9
  %78 = call i32 @luaD_reallocstack(ptr noundef %75, i32 noundef %76, i32 noundef %77)
  store i32 %78, ptr %4, align 4
  store i32 1, ptr %9, align 4
  br label %80

79:                                               ; preds = %65
  store i32 0, ptr %9, align 4
  br label %80

80:                                               ; preds = %79, %74
  call void @llvm.lifetime.end.p0(i64 4, ptr %11) #11
  call void @llvm.lifetime.end.p0(i64 4, ptr %10) #11
  %81 = load i32, ptr %9, align 4
  switch i32 %81, label %93 [
    i32 0, label %82
  ]

82:                                               ; preds = %80
  br label %83

83:                                               ; preds = %82, %37
  br label %84

84:                                               ; preds = %83
  %85 = load ptr, ptr %5, align 8, !tbaa !4
  %86 = load i32, ptr %7, align 4, !tbaa !9
  %87 = call i32 @luaD_reallocstack(ptr noundef %85, i32 noundef 1000200, i32 noundef %86)
  %88 = load i32, ptr %7, align 4, !tbaa !9
  %89 = icmp ne i32 %88, 0
  br i1 %89, label %90, label %92

90:                                               ; preds = %84
  %91 = load ptr, ptr %5, align 8, !tbaa !4
  call void (ptr, ptr, ...) @luaG_runerror(ptr noundef %91, ptr noundef @.str.1) #13
  unreachable

92:                                               ; preds = %84
  store i32 0, ptr %4, align 4
  store i32 1, ptr %9, align 4
  br label %93

93:                                               ; preds = %92, %80, %36
  call void @llvm.lifetime.end.p0(i64 4, ptr %8) #11
  %94 = load i32, ptr %4, align 4
  ret i32 %94
}