; Function Attrs: nounwind uwtable
define hidden range(i32 0, 2) i32 @luaD_growstack(ptr noundef %0, i32 noundef %1, i32 noundef %2) local_unnamed_addr #0 {
  %4 = getelementptr inbounds nuw i8, ptr %0, i64 40
  %5 = load ptr, ptr %4, align 8, !tbaa !27
  %6 = getelementptr inbounds nuw i8, ptr %0, i64 48
  %7 = load ptr, ptr %6, align 8, !tbaa !27
  %8 = ptrtoint ptr %5 to i64
  %9 = ptrtoint ptr %7 to i64
  %10 = sub i64 %8, %9
  %11 = lshr exact i64 %10, 4
  %12 = trunc i64 %11 to i32
  %13 = icmp sgt i32 %12, 1000000
  br i1 %13, label %14, label %16, !prof !42

14:                                               ; preds = %3
  %.not28 = icmp eq i32 %2, 0
  br i1 %.not28, label %32, label %15

15:                                               ; preds = %14
  tail call void @luaD_throw(ptr noundef nonnull %0, i32 noundef 5) #15
  unreachable

16:                                               ; preds = %3
  %17 = icmp slt i32 %1, 1000000
  br i1 %17, label %18, label %.thread

18:                                               ; preds = %16
  %19 = getelementptr inbounds nuw i8, ptr %0, i64 16
  %20 = load ptr, ptr %19, align 8, !tbaa !27
  %21 = ptrtoint ptr %20 to i64
  %22 = sub i64 %21, %9
  %23 = lshr exact i64 %22, 4
  %24 = trunc i64 %23 to i32
  %25 = add nsw i32 %1, %24
  %26 = icmp sgt i32 %25, 1000000
  br i1 %26, label %.thread, label %27, !prof !42

27:                                               ; preds = %18
  %28 = shl nsw i32 %12, 1
  %spec.store.select = tail call i32 @llvm.smin.i32(i32 %28, i32 1000000)
  %spec.select = tail call i32 @llvm.smax.i32(i32 %spec.store.select, i32 %25)
  %29 = tail call i32 @luaD_reallocstack(ptr noundef nonnull %0, i32 noundef %spec.select, i32 noundef %2)
  br label %32

.thread:                                          ; preds = %18, %16
  %30 = tail call i32 @luaD_reallocstack(ptr noundef nonnull %0, i32 noundef 1000200, i32 noundef %2)
  %.not = icmp eq i32 %2, 0
  br i1 %.not, label %32, label %31

31:                                               ; preds = %.thread
  tail call void (ptr, ptr, ...) @luaG_runerror(ptr noundef nonnull %0, ptr noundef nonnull @.str.1) #14
  unreachable

32:                                               ; preds = %27, %.thread, %14
  %.0 = phi i32 [ %29, %27 ], [ 0, %14 ], [ 0, %.thread ]
  ret i32 %.0
}